; Function Attrs: mustprogress uwtable
define dso_local void @_ZN11cmQtAutoGen28FileNameWithoutLastExtensionB5cxx11ESt17basic_string_viewIcSt11char_traitsIcEE(ptr dead_on_unwind noalias writable sret(%"class.std::__cxx11::basic_string") align 8 %0, i64 %1, ptr %2) local_unnamed_addr #4 align 2 personality ptr @__gxx_personality_v0 {
  %4 = alloca %"struct.std::__cxx11::basic_string<char>::__sv_wrapper", align 8
  %5 = alloca %"class.std::allocator", align 1
  %.not.i = icmp eq i64 %1, 0
  br i1 %.not.i, label %_ZNKSt17basic_string_viewIcSt11char_traitsIcEE5rfindEcm.exit8, label %.preheader23

.preheader23:                                     ; preds = %3, %6
  %.1.i = phi i64 [ %7, %6 ], [ %1, %3 ]
  %.not13.i = icmp eq i64 %.1.i, 0
  br i1 %.not13.i, label %_ZNKSt17basic_string_viewIcSt11char_traitsIcEE5rfindEcm.exit.thread, label %6

6:                                                ; preds = %.preheader23
  %7 = add i64 %.1.i, -1
  %8 = getelementptr inbounds i8, ptr %2, i64 %7
  %9 = load i8, ptr %8, align 1
  %10 = icmp eq i8 %9, 47
  br i1 %10, label %_ZNKSt17basic_string_viewIcSt11char_traitsIcEE5rfindEcm.exit, label %.preheader23, !llvm.loop !47

_ZNKSt17basic_string_viewIcSt11char_traitsIcEE5rfindEcm.exit: ; preds = %6
  %11 = getelementptr inbounds i8, ptr %2, i64 %.1.i
  %12 = sub i64 %1, %.1.i
  br label %_ZNKSt17basic_string_viewIcSt11char_traitsIcEE5rfindEcm.exit.thread

_ZNKSt17basic_string_viewIcSt11char_traitsIcEE5rfindEcm.exit.thread: ; preds = %.preheader23, %_ZNKSt17basic_string_viewIcSt11char_traitsIcEE5rfindEcm.exit
  %.sroa.09.0 = phi i64 [ %12, %_ZNKSt17basic_string_viewIcSt11char_traitsIcEE5rfindEcm.exit ], [ %1, %.preheader23 ]
  %.sroa.6.0 = phi ptr [ %11, %_ZNKSt17basic_string_viewIcSt11char_traitsIcEE5rfindEcm.exit ], [ %2, %.preheader23 ]
  %.not.i4 = icmp eq i64 %.sroa.09.0, 0
  br i1 %.not.i4, label %_ZNKSt17basic_string_viewIcSt11char_traitsIcEE5rfindEcm.exit8, label %.preheader

.preheader:                                       ; preds = %_ZNKSt17basic_string_viewIcSt11char_traitsIcEE5rfindEcm.exit.thread, %13
  %.1.i5 = phi i64 [ %14, %13 ], [ %.sroa.09.0, %_ZNKSt17basic_string_viewIcSt11char_traitsIcEE5rfindEcm.exit.thread ]
  %.not13.i6 = icmp eq i64 %.1.i5, 0
  br i1 %.not13.i6, label %_ZNKSt17basic_string_viewIcSt11char_traitsIcEE5rfindEcm.exit8, label %13

13:                                               ; preds = %.preheader
  %14 = add i64 %.1.i5, -1
  %15 = getelementptr inbounds i8, ptr %.sroa.6.0, i64 %14
  %16 = load i8, ptr %15, align 1
  %17 = icmp eq i8 %16, 46
  br i1 %17, label %_ZNKSt17basic_string_viewIcSt11char_traitsIcEE5rfindEcm.exit8, label %.preheader, !llvm.loop !47

_ZNKSt17basic_string_viewIcSt11char_traitsIcEE5rfindEcm.exit8: ; preds = %.preheader, %13, %3, %_ZNKSt17basic_string_viewIcSt11char_traitsIcEE5rfindEcm.exit.thread
  %.sroa.6.022 = phi ptr [ %.sroa.6.0, %_ZNKSt17basic_string_viewIcSt11char_traitsIcEE5rfindEcm.exit.thread ], [ %2, %3 ], [ %.sroa.6.0, %13 ], [ %.sroa.6.0, %.preheader ]
  %.sroa.09.021 = phi i64 [ 0, %_ZNKSt17basic_string_viewIcSt11char_traitsIcEE5rfindEcm.exit.thread ], [ 0, %3 ], [ %.sroa.09.0, %13 ], [ %.sroa.09.0, %.preheader ]
  %.09.i7 = phi i64 [ -1, %_ZNKSt17basic_string_viewIcSt11char_traitsIcEE5rfindEcm.exit.thread ], [ -1, %3 ], [ -1, %.preheader ], [ %14, %13 ]
  %.sroa.speculated.i = tail call i64 @llvm.umin.i64(i64 %.sroa.09.021, i64 %.09.i7)
  call void @_ZNSaIcEC1Ev(ptr noundef nonnull align 1 dereferenceable(1) %5) #19
  call void @llvm.lifetime.start.p0(i64 16, ptr nonnull %4)
  %18 = call { i64, ptr } @_ZNSt7__cxx1112basic_stringIcSt11char_traitsIcESaIcEE17_S_to_string_viewESt17basic_string_viewIcS2_E(i64 %.sroa.speculated.i, ptr %.sroa.6.022) #19
  %19 = extractvalue { i64, ptr } %18, 0
  %20 = extractvalue { i64, ptr } %18, 1
  call void @_ZNSt7__cxx1112basic_stringIcSt11char_traitsIcESaIcEE12__sv_wrapperC1ESt17basic_string_viewIcS2_E(ptr noundef nonnull align 8 dereferenceable(16) %4, i64 %19, ptr %20) #19
  %21 = load i64, ptr %4, align 8
  %22 = getelementptr inbounds nuw i8, ptr %4, i64 8
  %23 = load ptr, ptr %22, align 8
  invoke void @_ZNSt7__cxx1112basic_stringIcSt11char_traitsIcESaIcEEC2ENS4_12__sv_wrapperERKS3_(ptr noundef nonnull align 8 dereferenceable(32) %0, i64 %21, ptr %23, ptr noundef nonnull align 1 dereferenceable(1) %5)
          to label %24 unwind label %25

24:                                               ; preds = %_ZNKSt17basic_string_viewIcSt11char_traitsIcEE5rfindEcm.exit8
  call void @llvm.lifetime.end.p0(i64 16, ptr nonnull %4)
  call void @_ZNSaIcED1Ev(ptr noundef nonnull align 1 dereferenceable(1) %5) #19
  ret void

25:                                               ; preds = %_ZNKSt17basic_string_viewIcSt11char_traitsIcEE5rfindEcm.exit8
  %26 = landingpad { ptr, i32 }
          cleanup
  call void @_ZNSaIcED1Ev(ptr noundef nonnull align 1 dereferenceable(1) %5) #19
  resume { ptr, i32 } %26
}